; Function Attrs: mustprogress uwtable
define dso_local noundef range(i32 0, -1) i32 @_Z40test_assert_success_message_errno_helperiPKcS0_(i32 noundef returned %0, ptr noundef %1, ptr noundef %2) local_unnamed_addr #0 {
  %4 = icmp eq i32 %0, -1
  br i1 %4, label %5, label %13

5:                                                ; preds = %3
  %.not = icmp eq ptr %1, null
  %6 = select i1 %.not, ptr @.str.2, ptr @.str.1
  %7 = select i1 %.not, ptr @.str.2, ptr %1
  %8 = select i1 %.not, ptr @.str.2, ptr @.str.3
  %9 = tail call i32 @zmq_errno()
  %10 = tail call i32 @zmq_errno()
  %11 = tail call ptr @zmq_strerror(i32 noundef %10)
  %12 = tail call i32 (ptr, ...) @printf(ptr noundef nonnull dereferenceable(1) @.str, ptr noundef %2, ptr noundef nonnull %6, ptr noundef nonnull %7, ptr noundef nonnull %8, i32 noundef %9, ptr noundef %11)
  tail call void @exit(i32 noundef 1) #10
  unreachable

13:                                               ; preds = %3
  ret i32 %0
}